#include <math.h>
#include <stdio.h>
#include <stdlib.h>
#include <string.h>
#define ASCII 100
#define MAX_N 100
#define MAX_M 100
#define ASC 100
#define null 0
#define Len 100
#define SUM 100
#define NUMBER 100
#define SIZE 100
#define MAXN 100
#define MAXSIZE 100
#define maxrow 100
#define maxcol 100
#define mx 100
#define NUM 100
#define ROW 100
#define COL 100
#define SIZEE 100
#define MAX_LEN 100
#define LIU 100
#define maxsize 100
#define NUM 100
#define NO 100
#define Null 0
#define ID_DIGITS 100
#define INT_MAX 100
#define INT_MIN 100
#define FALSE 0
#define TRUE 1
#define hang 100
#define lie 100
#define lll 100
#define LEM 100
#define K 100
#define INF 100
#define MONTH 12
#define true 1
#define PI 100
#define maxlen 100
#define maxinputint 100
#define STUDENT_NUM 100
#define TOTAL 100
#define LEN1 100
#define student_num 100
#define MAXLEN 100
#define MAXL 100
#define nMax 100
#define Vocabularysize 100
#define Sentencelength 100
#define LENGTH 100
#define ARRAY 100
#define len 100
#define tsuhu 100
#define l 100
#define h 100
#define maxn 100
#define MAXLENGTH 100
#define SEX 100

struct book
{int num;
char a[27];
int y;
struct book *next;
};

void main()
{int n,i,j,k,m=0,num,max;
struct book *p1,*p2,*p,*head,*Z;
int c[26]={0};
scanf("%d",&n);
head=p1=p2=Z;
for(i=0;i<n;i++)
{p2->next=p1;
p2=p1;
scanf("%d%s",&p2->num,p2->a);
num=strlen(p2->a);
for(j=0;j<num;j++)
c[*(p2->a+j)-65]++;
p1=Z;
}
p2->next=0;

max=0;
for(i=0;i<26;i++)
if(c[i]>c[max])
max=i;
max=max+65;
p=head;
for(i=0;i<n;i++)
{num=strlen(p->a);
for(j=0;j<num;j++)
if(*(p->a+j)==max)
break;
if(j==num)
p->y=0;
else {p->y=1;m++;}
p=p->next;
}
p=head;
printf("%c\n%d\n",max,m);
for(i=0;i<n;i++)
{if(p->y==1)
printf("%d\n",p->num);
p=p->next;
}
}

